; Function Attrs: mustprogress nofree norecurse nosync nounwind willreturn memory(argmem: read) uwtable
define internal range(i32 0, 2) i32 @is_allowed_reverse_match(ptr noundef readonly captures(none) %0, ptr readnone captures(none) %1) #0 {
  %3 = load i8, ptr %0, align 1, !tbaa !4
  %4 = zext i8 %3 to i64
  %5 = getelementptr inbounds nuw [256 x i8], ptr @SJIS_CAN_BE_TRAIL_TABLE, i64 0, i64 %4
  %6 = load i8, ptr %5, align 1, !tbaa !4
  %.not = icmp eq i8 %6, 0
  %7 = zext i1 %.not to i32
  ret i32 %7
}